(lp0
cnumpy.core.multiarray
scalar
p1
(cnumpy
dtype
p2
(S'S3573'
p3
I0
I1
tp4
Rp5
(I3
S'|'
p6
NNNI3573
I1
I0
tp7
bS'<trajectory>\n<configuration>\n<group name="deltatime" offset="6" dof="1" interpolation=""/>\n<group name="affine_velocities PR2 11" offset="3" dof="3" interpolation="linear"/>\n<group name="affine_transform PR2 11" offset="0" dof="3" interpolation="quadratic"/>\n<group name="iswaypoint" offset="7" dof="1" interpolation="next"/>\n</configuration>\n<data count="27">\n1.374398231506349 3.095622062683105 -1.570796326794897 0 0 0 0 1 1.371266717604296 3.089448431358908 -1.570796326794897 -0.05636363534374195 -0.1111182372448079 0 0.1111182372448079 1 1.279136484322145 2.661248323041886 -1.370796323814665 -0.1278968312205622 -0.745281979389235 0.4000000059604645 1 1 1.221995237271166 2.310743601899678 -1.210132440039141 -0.1566288334635351 -1 0.4000000059604645 0.4016597034536145 1 1.203632110934461 2.196484994741759 -1.164428996494939 -0.1648021167899751 -1 0.4000000059604645 0.1142586071579184 1 1.078938605127437 1.242236011794161 -0.7827293976281323 -0.09654163737752809 -0.9999999999999999 0.4000000059604645 0.9542489829475984 1 1.02735344584157 0.6791499277634916 -0.489192363380177 -0.0440475327398515 -0.5346236466929972 0.4000000059604645 0.7338425746847821 1 1.001952501856099 0.3708897952545409 -0.02794634597682396 -8.686120483710256e-06 -3.269802781218994e-05 0.4000000059604645 1.153115026325629 1 1.001853885548212 0.3705185640720975 4.513381835735412 -8.686120483710271e-06 -3.269802781219e-05 0.4000000059604652 11.35332028510294 0 1.00184954248797 0.3705022150581914 4.713381838715645 0 0 0 1.000000000000002 1 0.8860398627124356 -0.06545168833577047 4.715407804416107 -0.2480501952978284 -0.9337600370480221 0.004339371187626329 0.9337600370480221 0 0.7702301829369009 -0.5014055917297323 4.717433770116569 0 0 0 0.9337600370480221 1 0.314511737948488 -1.001405591729732 4.717029004849869 -0.9114368899768258 -1 -0.000809530533399144 1 0 0.2361526020092911 -1.087378780659126 4.716959406928377 -0.9114368899768258 -1 -0.000809530533399144 0.08597318892939398 1 0.1254173078570218 -1.203244802428343 4.71685550350108 -1 -1 -0.0009839793448115225 0.1158660217692158 1 -0.917839558480868 -2.246501668766232 4.715009619785268 -1 -1 -0.002554715247809459 1.04325686633789 1 -0.9361309767876038 -2.264793087072968 4.714963142290157 -1 -1 -0.002527175541742632 0.01829141830673597 1 -1.027833199139789 -2.359956339050433 4.714729465473914 -0.9272612157874016 -0.9999999999999999 -0.002383896986527612 0.09516325197746411 1 -1.380995787053279 -2.721159419289969 4.713770091896338 -0.5656218953037162 -0.5268717486456523 -0.001671551297652739 0.4731282513543476 1 -1.540959851276763 -2.870164517815438 4.7132973588898 0 0 0 0.5656218953037162 1 -1.584296275860993 -2.862001613874877 4.712511747186468 -0.2944025291475281 0.05545403406823241 -0.005336990178762361 0.2944025291475282 0 -1.624922738228519 -2.854349161857145 4.711775262240904 -0.07362013605944083 0.01386718227241294 -0.001334601113129342 0.2207823930880873 1 -1.668581693846698 -2.905260864928755 4.712047640125489 -0.1883863997735251 -0.3193989744620335 0.002969197840582347 0.3332661567344464 1 -1.688926222717013 -2.941794461800905 4.712278356558859 -0.2224892196296943 -0.4184290843520526 0.00169032305921585 0.09903010989001915 1 -1.695681869607146 -2.955297091874853 4.712324697188165 -0.2117748640566838 -0.4495421657415387 0.001288528744296816 0.03111308138948599 1 -1.715098078592942 -2.995173569268498 4.71238898038469 -0.1774146090211619 -0.3497644979015206 0 0.09977766784001801 1 -1.746124744415283 -3.056341171264649 4.71238898038469 0 0 0 0.3497644979015206 1 </data>\n</trajectory>\n'
p8
tp9
Rp10
ag1
(g2
(S'S2722'
p11
I0
I1
tp12
Rp13
(I3
S'|'
p14
NNNI2722
I1
I0
tp15
bS'<trajectory>\n<configuration>\n<group name="deltatime" offset="6" dof="1" interpolation=""/>\n<group name="affine_velocities PR2 11" offset="3" dof="3" interpolation="linear"/>\n<group name="affine_transform PR2 11" offset="0" dof="3" interpolation="quadratic"/>\n<group name="iswaypoint" offset="7" dof="1" interpolation="next"/>\n</configuration>\n<data count="20">\n-1.746124744415282 -3.056341171264649 -1.570796326794897 0 0 0 0 1 -1.74307973392799 -3.05215976502924 -1.570796326794897 0.06659515119874454 0.09144841426081185 0 0.09144841426081185 1 -1.571116438008504 -2.89108712704963 -1.370796323814665 0.2773314406402274 0.2306968616984106 0.4000000059604645 1 1 -1.478678013832901 -2.81580722995901 -1.251083144581997 0.3404012176722538 0.2723715469423296 0.4000000059604645 0.2992829436220079 1 -1.425611986793965 -2.776764881564217 -1.191475647867533 0.3718048739055562 0.2516209188187111 0.4000000059604645 0.1490187395656055 1 -1.238787155408364 -2.649709953224451 -0.9487378645806622 0.2439207264183635 0.1671187714350385 0.4000000059604645 0.6068444491744907 1 -0.6027517566449683 -2.223843142819399 -0.05960114166468555 0.3283515838784331 0.2160545298357102 0.4000000059604645 2.222841774167018 1 0.3522291497155663 -1.273629091297696 1.420560128576267 0.1877980761841624 0.297518732637946 0.4000000059604645 3.700403120462078 1 0.6271234559275718 -0.7772292582495375 2.135181650147506 0.119938874926786 0.2581878342212857 0.4000000059604645 1.786553777306372 1 0.8666381107774077 -0.1899389998016803 3.171035433187576 0.06504063653742423 0.1953821787012399 0.4000000059604645 2.589634419011613 1 0.8855071844805433 -0.1315844777802947 3.292552813008097 0.05918241048466322 0.188790179044627 0.4000000059604645 0.3037934450244251 1 0.929629267176423 0.05150576533009477 3.716699036013501 0.02403810349886223 0.1565440211117467 0.4000000059604645 1.060365541712832 1 0.977180084315968 0.3611722963243594 4.507956430347592 0.02403810349886223 0.1565440211117467 0.4000000059604645 1.978143456358593 0 0.9891991360653991 0.4394443068802327 4.707956433327825 0 0 0 1 1 1.000234740687047 0.454797271643019 4.708071090292814 0.125954881498347 0.1752310746573581 0.001308637354569912 0.1752310746573581 0 1.011270345308695 0.4701502364058053 4.708185747257803 0 0 0 0.1752310746573581 1 0.9631064632773585 0.5339924120375107 4.710287363821246 -0.269576879945892 0.3573294715852734 0.0117629063962725 0.3573294715852734 0 0.9149425812460223 0.597834587669216 4.71238898038469 0 0 0 0.3573294715852734 1 0.9914704356539862 0.7029225829123675 4.71238898038469 0.3338550743494028 0.4584495506446733 0 0.4584495506446733 0 1.06799829006195 0.8080105781555189 4.71238898038469 0 0 0 0.4584495506446733 1 </data>\n</trajectory>\n'
p16
tp17
Rp18
ag1
(g2
(S'S2287'
p19
I0
I1
tp20
Rp21
(I3
S'|'
p22
NNNI2287
I1
I0
tp23
bS'<trajectory>\n<configuration>\n<group name="deltatime" offset="6" dof="1" interpolation=""/>\n<group name="affine_velocities PR2 11" offset="3" dof="3" interpolation="linear"/>\n<group name="affine_transform PR2 11" offset="0" dof="3" interpolation="quadratic"/>\n<group name="iswaypoint" offset="7" dof="1" interpolation="next"/>\n</configuration>\n<data count="15">\n1.067998290061949 0.8080105781555185 -1.570796326794897 0 0 0 0 1 1.069568796340473 0.8216416524468049 -1.570579653854535 0.01902346538033278 0.1651125330875061 0.002624548679744851 0.1651125330875061 1 1.071919242387725 0.850133338822475 -1.564562511009707 0.009123056774306526 0.1760745716892489 0.06943055957836279 0.167015024757827 1 1.096901923350118 1.006756071341049 -1.389869331213352 0.0551824646331826 0.2270729725648543 0.3802303887420808 0.7769995613310992 1 1.099701664740513 1.017898771002632 -1.37058826119389 0.05811225022902908 0.2238290233427029 0.4000000059604645 0.04942404230948372 1 1.836257180245413 1.383926335005415 0.2694902215369167 0.3011659351680663 -0.04528753362200794 0.4000000059604645 4.100196145729332 1 2.201102899440706 1.302751784624644 0.7059958678069 0.3675002830118598 -0.1034840614930002 0.4000000059604645 1.091264099413856 1 3.299243602553647 -0.03270310585555458 2.865073466627448 0.03939226038774757 -0.3913401768241604 0.4000000059604645 5.397693916619462 1 2.947767069694297 -1.190664349129639 4.509018712470901 -0.2104327686944228 -0.1721633892255422 0.4000000059604639 4.109863053366903 1 2.713265106373204 -1.333370245687659 4.708909402359088 -0.269798356229596 -0.1200807023239659 0.009351495866418168 0.9766212606823235 1 2.685005998714989 -1.34329700519599 4.709927762750512 -0.3595961183614502 -0.1010107652730882 0.01332970168791855 0.08979776213185414 1 2.681075749226804 -1.344405237482259 4.710078465042249 -0.3484951496997514 -0.0986533036999198 0.01382149499218173 0.0111009686616988 1 2.64748974116101 -1.354384763020201 4.711379533601093 -0.2329739325174904 -0.07412059500644753 0.008703692857798056 0.1155212171822609 1 2.646231407688106 -1.354793024540031 4.711426440100197 -0.2275086510154193 -0.07528123166080858 0.00846157084749948 0.005465281502071151 1 2.620351314544678 -1.363356590270996 4.71238898038469 0 0 0 0.2275086510154193 1 </data>\n</trajectory>\n'
p24
tp25
Rp26
ag1
(g2
(S'S2537'
p27
I0
I1
tp28
Rp29
(I3
S'|'
p30
NNNI2537
I1
I0
tp31
bS'<trajectory>\n<configuration>\n<group name="deltatime" offset="6" dof="1" interpolation=""/>\n<group name="affine_velocities PR2 11" offset="3" dof="3" interpolation="linear"/>\n<group name="affine_transform PR2 11" offset="0" dof="3" interpolation="quadratic"/>\n<group name="iswaypoint" offset="7" dof="1" interpolation="next"/>\n</configuration>\n<data count="17">\n2.620351314544678 -1.363356590270997 -1.570796326794897 0 0 0 0 1 2.624337216218582 -1.362037679601222 -1.570944571660551 0.08928495588735778 0.0295438499502409 -0.003320713196992851 0.0892849558873578 1 2.668191434414334 -1.32774575532259 -1.576726967730784 0.2855333898671151 0.2635463671294795 -0.04610094380000418 0.2340025171792386 1 2.977523096354646 -1.003781935859855 -1.572508070388795 0.7748401063450132 0.8469854346756012 0.06056311329349567 0.5834390675461216 1 3.086266959271863 -0.8624740991361635 -1.561100813293195 0.646512987547375 1 0.08853716446655757 0.1530145653243988 1 3.124291520164314 0.6180550039730123 -1.229651826939597 -0.5951468093174466 0.9999999999999999 0.3592068017378764 1.480529103109175 1 3.051425780690881 0.7323430522790744 -1.187403701124675 -0.6799775900125653 0.9999999999999999 0.3801203009838766 0.1142880483060613 1 2.973173818913904 0.8350804541499525 -1.145028123261289 -0.7606150229603359 0.8913614285228205 0.4000000059604645 0.1086385714771794 1 2.764084150730697 1.023768228693805 -1.046832042831374 -0.9428311462428689 0.6458712311061218 0.4000000059604645 0.2454901974166988 1 2.217338276590969 1.266480130809448 -0.6121892805507325 -0.0635049619081315 -0.1991376341470335 0.4000000059604645 1.086606889509899 1 2.17219830637797 1.199477782701975 -0.3479242958039127 -0.07314566830345896 -0.003696196964045505 0.4000000059604645 0.6606624520224109 1 1.322234389248941 1.15652740542185 4.300137302420811 -0.07314566830345896 -0.003696196964045505 0.4000000059604645 11.62015382240802 1 1.310104183129757 1.199758772075333 4.464059734301256 0.01394593017957918 0.2146807061700207 0.4000000059604645 0.4098060735945253 1 1.311097613825302 1.210058354776685 4.484553364568368 0.02483414723570998 0.1873791620166837 0.4000000059604645 0.05123407490433129 1 1.312373965220582 1.232950733956384 4.547512860349381 -0.008616083244360861 0.1035047370595933 0.4000000059604644 0.1573987371071107 1 1.142025540532146 0.9592281250211915 4.737274490906366 -0.2692188858928881 -0.5499409911357305 -0.090502475439346 1.226256185226885 1 1.06799829006195 0.8080105781555174 4.71238898038469 0 0 0 0.5499409911357305 1 </data>\n</trajectory>\n'
p32
tp33
Rp34
a.