(lp0
S'<trajectory>\n<configuration>\n<group name="deltatime" offset="6" dof="1" interpolation=""/>\n<group name="affine_velocities PR2 11" offset="3" dof="3" interpolation="linear"/>\n<group name="affine_transform PR2 11" offset="0" dof="3" interpolation="quadratic"/>\n<group name="iswaypoint" offset="7" dof="1" interpolation="next"/>\n</configuration>\n<data count="15">\n-1.968957424163818 -3.239548206329345 -1.570796326794897 0 0 0 0 1 -1.973062384554333 -3.254093581810928 -1.571675138189558 -0.04813505809544105 -0.1705601095308229 -0.01030500504576867 0.170560109530823 1 -1.993877565903732 -3.326009102790429 -1.548355876696108 -0.06493101293807457 -0.2200781110540447 0.1369729995354575 0.3681950059665322 1 -2.046436374006587 -3.441649233897574 -1.371807876618589 -0.09492727568531334 -0.131642830159003 0.4000000059604645 0.6575675062639983 1 -2.434930712492825 -3.341962094337879 -0.3553758112290086 -0.2108437502426032 0.2101032758215004 0.4000000059604645 2.541080125608907 1 -2.73663889390239 -2.759507893583109 0.3525366003473624 -0.1301116346005898 0.44811850405888 0.4000000059604645 1.769781002569135 1 -2.935273738553823 -1.527371713237098 1.1979679848199 -0.05784906925735891 0.7178057531533089 0.4000000059604645 2.113578429686571 1 -2.854141098426012 0.4035538216426908 2.978139594871171 0.09430966255238174 0.149942301135551 0.4000000059604645 4.450428958811617 1 -2.629454489332676 0.610520511467611 3.869095032037582 0.1074392492953487 0.03589567394181047 0.4000000059604645 2.227388559725352 1 -2.457195780046667 0.5985283173391739 4.541420032682381 0.097531515364788 -0.05016519454048948 0.4000000059604639 1.680812476565936 1 -2.381331158383682 0.5422806137746825 4.733181872569938 0.09283324718844813 -0.09097543858341557 0.08118208282832948 0.7970447959534432 1 -2.362569262735605 0.5230682228947909 4.741420017504634 0.09177973216253819 -0.0980703160312566 -0.0001205254437808736 0.2032565176515178 1 -2.358068829066382 0.518259329451556 4.741414107520454 0 0 0 0.0980703160312566 1 -2.418854179624134 0.4277357075877171 4.726901543952572 -0.2857149481699151 -0.425496467350409 -0.06821473117392757 0.425496467350409 0 -2.479639530181886 0.3372120857238783 4.71238898038469 0 0 0 0.425496467350409 1 </data>\n</trajectory>\n'
p1
aS'<trajectory>\n<configuration>\n<group name="deltatime" offset="6" dof="1" interpolation=""/>\n<group name="affine_velocities PR2 11" offset="3" dof="3" interpolation="linear"/>\n<group name="affine_transform PR2 11" offset="0" dof="3" interpolation="quadratic"/>\n<group name="iswaypoint" offset="7" dof="1" interpolation="next"/>\n</configuration>\n<data count="19">\n-1.96895742416382 -3.239548206329345 -1.570796326794897 0 0 0 0 1 -1.973624487102068 -3.256085316648326 -1.571795476043501 -0.05132498648635132 -0.1818631920921948 -0.01098792160315178 0.1818631920921948 1 -2.116900586727243 -3.321041998261634 -1.371946391087466 -0.2275661286070015 0.05542311300508562 0.4000000059604645 1.027469803598547 1 -2.711609654810581 -2.927388426441277 -0.7231780112780267 -0.5057730358200626 0.4299933652787419 0.4000000059604645 1.621920925355093 1 -3.074642127711036 -2.486959221542106 -0.3886159769649985 -0.3623050868049195 0.6231547299411619 0.4000000059604645 0.8364050733191637 1 -3.456946257497691 -1.677971795597991 0.4809764995899467 0.01059630754040631 0.1210903823936857 0.4000000059604645 2.17398115899252 1 -3.351107420056105 -0.4684877136162405 4.476286700435546 0.01059630754040627 0.1210903823936853 0.400000005960463 9.988275353277093 0 -3.345809266285902 -0.407942522419398 4.676286703415776 0 0 0 0.9999999999999964 1 -3.316625179770634 -0.3736677778680781 4.67534518578699 0.22293280916856 0.2618195735666831 -0.007192110322081968 0.2618195735666831 1 -2.909313934726606 -0.1000263469152852 4.68709700698559 0.9296889412549997 0.5125392711028833 0.04044777140536871 0.7067561320864396 1 -2.845242146438284 -0.06237574615449995 4.690169507758283 0.8580081298654458 0.5379678320092928 0.04527951636192806 0.07168081138955384 1 -2.791543207269843 -0.0281306761541899 4.693257634472733 0.7929565388962481 0.5148909679092284 0.04966440948030295 0.06505159096919777 1 -2.505706257350063 0.2026761772340809 4.710427513760696 0.2389689786117764 0.318365480194956 0.01232210617050537 0.5539875602844717 1 -2.487702864323572 0.226661126658538 4.711355833920035 0.1734331104191086 0.2310555780128498 0.008942839411541609 0.08730990218210621 1 -2.472885087242124 0.2685899361584952 4.712233328635943 0.03914620197566979 0.3704649769286802 0.003645906006371172 0.1394093989158304 1 -2.474263694599465 0.3027223274986239 4.71240557587165 -0.06471729384760047 0.2626395180670838 -0.0004509789914377196 0.1078254588615964 1 -2.474898423830719 0.3054632707744119 4.712398616325541 -0.05445654165664447 0.25198736059361 -0.0008557133149279553 0.01065215747347378 1 -2.475880574002076 0.310884777511842 4.71238898038469 -0.03276265072280814 0.2294659373939275 0 0.02252142319968253 1 -2.479639530181886 0.3372120857238783 4.71238898038469 0 0 0 0.2294659373939275 1 </data>\n</trajectory>\n'
p2
a.