(lp0
S'<trajectory>\n<configuration>\n<group name="deltatime" offset="6" dof="1" interpolation=""/>\n<group name="affine_velocities PR2 11" offset="3" dof="3" interpolation="linear"/>\n<group name="affine_transform PR2 11" offset="0" dof="3" interpolation="quadratic"/>\n<group name="iswaypoint" offset="7" dof="1" interpolation="next"/>\n</configuration>\n<data count="22">\n-2.479639530181885 0.3372120857238781 -1.570796326794897 0 0 0 0 1 -2.483298490815522 0.3363682736193409 -1.571302071798696 -0.08554484944912533 -0.01972794645080325 -0.01182409010141248 0.08554484944912533 1 -2.715098756378907 0.2813480410881563 -1.396226758942487 -0.3945504714751529 -0.09422773056357139 0.3744329866327935 0.9656426774463178 1 -2.739663782443691 0.2751676383572649 -1.371476830199267 -0.3740968586184107 -0.09915899923163818 0.4000000059604645 0.06391754736673172 1 -2.821132921886797 0.2487896199705871 -1.27426138419961 -0.2963245117253771 -0.1179095417476131 0.4000000059604645 0.2430386113775853 1 -2.958321516052996 0.1730832548051089 -0.9072848601157465 -0.002743329854848126 -0.04712851671149429 0.4000000059604645 0.9174412965387186 1 -2.788589188523961 0.1192812618912678 -0.3043055044149734 0.2279348936502394 -0.02425302324590706 0.4000000059604645 1.507448366789202 1 -2.767419710898874 0.1170236601714542 -0.2659188781944251 0.2132495505133773 -0.02279673289537993 0.4000000059604645 0.09596656412135784 1 -2.624331847293224 0.08175631526714167 0.1842627657537197 0.0410262382245702 -0.03987547225370305 0.4000000059604645 1.125454093099789 1 -2.344310413712798 -0.1904106536871603 2.914432041525811 0.0410262382245702 -0.03987547225370305 0.4000000059604645 6.8254230877235 1 -2.346450090315026 -0.1854933996646644 3.138763504416274 -0.04865664942607584 0.05741114569838534 0.4000000059604645 0.5608286488691572 1 -2.349956926491146 -0.180091824546635 3.172180241537351 -0.03529735758949504 0.07190310012874124 0.4000000059604645 0.08354184155782374 1 -2.316030955186035 -0.1863565981662907 3.535581736764625 0.1099827339706353 -0.08569451000522518 0.4000000059604645 0.9085037245304228 1 -2.312867260912518 -0.1886413627555852 3.546745911644129 0.1167205812178048 -0.07802665330511593 0.4000000059604645 0.02791043678286353 1 -1.326557016659986 -1.178701180962261 4.513004571628661 0.6998808525767357 -0.741679186516751 0.4000000059604644 2.415646613965392 1 -0.7523170387007341 -1.792257169248371 4.698301439319851 0.8758351951831246 -0.9419200995820467 0.1084550985731362 0.7288622576074264 1 -0.5725543408107232 -1.997524516245766 4.712291012333571 0.8247996173871269 -1 0.02389246384875368 0.2114065836607528 1 -0.539781496601486 -2.037944837629829 4.713024215349535 0.7968027393995968 -1 0.01238646669196197 0.04042032138406304 1 -0.4636447805663331 -2.132845452590623 4.712841342162242 0.7276148591849694 -0.9001104210475575 -0.01604797351199642 0.09988957895244255 1 -0.4237253349999865 -2.182001108747492 4.71238898038469 0.6885662525983361 -0.8437342340836196 0 0.05637618696393787 1 -0.4170857808212384 -2.190136882376425 4.71238898038469 0.6963910408878698 -0.8533223336011649 0 0.009588099517545356 0 -0.1199627667665477 -2.554216384887694 4.71238898038469 0 0 0 0.8533223336011649 1 </data>\n</trajectory>\n'
p1
a.