(lp0
S'<trajectory>\n<configuration>\n<group name="deltatime" offset="6" dof="1" interpolation=""/>\n<group name="affine_velocities PR2 11" offset="3" dof="3" interpolation="linear"/>\n<group name="affine_transform PR2 11" offset="0" dof="3" interpolation="quadratic"/>\n<group name="iswaypoint" offset="7" dof="1" interpolation="next"/>\n</configuration>\n<data count="10">\n-2.479639530181883 0.337212085723877 -1.570796326794897 0 0 0 0 1 -2.474580387763651 0.3017784186732217 -1.570796326794897 0.03800877327507773 -0.2662091923681646 0 0.2662091923681646 1 -2.407255774343231 0.04042953849643549 -1.370796323814665 0.09664045356576503 -0.25648856798541 0.4000000059604645 1 1 -1.609076694310636 -0.8692702949371313 0.1587303405590117 0.3208372461790693 -0.219318683069824 0.4000000059604645 3.823816603954883 1 -0.8806566399637787 -1.828257021981442 1.444438824119495 0.1324039508823143 -0.3773868710095127 0.4000000059604645 3.214271161004835 1 -1.59043043438326 -3.276300514619403 4.513599360212599 -0.3174118829599091 -5.666697075347449e-05 0.4000000059604647 7.672901225897626 1 -1.655455875731686 -3.275317267917847 4.585959370009912 -0.3292026744094581 0.009834095889758337 0.3195496769954926 0.201125819415422 1 -1.903304317660316 -3.251143988884968 4.713567420738893 -0.2816286347032673 0.04974181091159435 -0.005055092831223139 0.8115119124743195 1 -1.91630219894086 -3.248848277180833 4.71333411528488 -0.3245157167933691 0.0573166128493432 -0.005824894458299083 0.04288708209010184 0 -1.968957424163817 -3.239548206329346 4.71238898038469 0 0 0 0.3245157167933691 1 </data>\n</trajectory>\n'
p1
aS'<trajectory>\n<configuration>\n<group name="deltatime" offset="6" dof="1" interpolation=""/>\n<group name="affine_velocities PR2 11" offset="3" dof="3" interpolation="linear"/>\n<group name="affine_transform PR2 11" offset="0" dof="3" interpolation="quadratic"/>\n<group name="iswaypoint" offset="7" dof="1" interpolation="next"/>\n</configuration>\n<data count="11">\n-2.479639530181885 0.3372120857238781 -1.570796326794897 0 0 0 0 1 -2.475182337093051 0.3059944043790896 -1.570796326794897 0.03567599748705795 -0.249870691938004 0 0.249870691938004 1 -2.39586105066787 0.057040656149731 -1.370796323814665 0.1229665753633045 -0.2480368045207125 0.4000000059604645 1 1 -1.328767066705502 -0.8560222721649748 0.1222700494758495 0.4487931368384122 -0.2411915155348186 0.4000000059604645 3.73266587760523 1 -0.3456641482381417 -2.52646845355634 2.969650288624617 -0.1725805201741517 -0.2281370787472958 0.4000000059604645 7.118450491798741 1 -0.858898893940212 -2.982055302965966 3.762134656888658 -0.3455215637562801 -0.2317703964715544 0.4000000059604645 1.981210891137758 1 -1.225350065906877 -3.157783286065967 4.138303153664613 -0.4338125496912281 -0.1419514589728483 0.4000000059604645 0.9404212279265192 1 -1.591205166945914 -3.248953577111054 4.513781758566658 -0.3456834891547598 -0.05229724913112209 0.4000000059604645 0.9386964982674471 1 -1.892773640028159 -3.253003938162148 4.713756441124061 -0.2507426134030801 0.04428666025568108 -0.004500704229991832 1.011251760407315 1 -1.915147567551936 -3.249052210478599 4.713354840339571 -0.3280544363726263 0.0579416285561654 -0.005888412701020881 0.0773118229695462 0 -1.968957424163817 -3.239548206329346 4.71238898038469 0 0 0 0.3280544363726263 1 </data>\n</trajectory>\n'
p2
a.