(lp0
S'<trajectory>\n<configuration>\n<group name="deltatime" offset="6" dof="1" interpolation=""/>\n<group name="affine_velocities PR2 11" offset="3" dof="3" interpolation="linear"/>\n<group name="affine_transform PR2 11" offset="0" dof="3" interpolation="quadratic"/>\n<group name="iswaypoint" offset="7" dof="1" interpolation="next"/>\n</configuration>\n<data count="4">\n-1.96895742416382 -3.239548206329345 -1.570796326794897 0 0 0 0 1 -1.46895742416382 -3.054222678562176 -1.570796326794897 0.9999999999999999 0.3706510555343382 0 1 0 -0.6199627667665484 -2.739541912654863 -1.570796326794897 0.9999999999999999 0.3706510555343382 0 0.8489946573972715 0 -0.1199627667665484 -2.554216384887694 -1.570796326794897 0 0 0 1 1 </data>\n</trajectory>\n'
p1
aS'<trajectory>\n<configuration>\n<group name="deltatime" offset="6" dof="1" interpolation=""/>\n<group name="affine_velocities PR2 11" offset="3" dof="3" interpolation="linear"/>\n<group name="affine_transform PR2 11" offset="0" dof="3" interpolation="quadratic"/>\n<group name="iswaypoint" offset="7" dof="1" interpolation="next"/>\n</configuration>\n<data count="21">\n-1.96895742416382 -3.239548206329345 -1.570796326794897 0 0 0 0 1 -1.687658526406443 -3.135284472954928 -1.570796326794897 0.7500651941763158 0.2780124559410171 0 0.7500651941763158 0 -1.406359628649066 -3.031020739580511 -1.570796326794897 0 0 0 0.7500651941763158 1 -1.397958469660052 -3.025610312137061 -1.570411881675116 0.1296237554541112 0.08347894912466326 0.005931707786641288 0.1296237554541112 0 -1.389557310671038 -3.02019988469361 -1.570027436555336 0 0 0 0.1296237554541112 1 -1.388634537797126 -3.010252871019702 -1.569574220576023 0.0130846906590562 0.1410461887036169 0.006426490265055257 0.1410461887036169 0 -1.387711764923213 -3.000305857345793 -1.569121004596709 0 0 0 0.1410461887036169 1 -1.396256396077358 -2.815919981173261 -1.573733118461487 -0.02814132180144313 0.6072658004079141 -0.0151897698229674 0.6072658004079141 1 -1.414327042526231 -2.235186688480371 -1.374021526861051 -0.006677737379961919 0.5117083848319619 0.4000000059604645 1.037974423991555 1 -0.7555374327730437 -1.162050523260669 1.950702519221298 0.1651966665755912 -0.2534887753037197 0.4000000059604645 8.311809991350252 1 -0.6112032893517432 -1.436779462758693 2.321725999514109 0.1460162959207744 -0.3388811596125028 0.4000000059604645 0.9275586869103254 1 -0.3291491212843893 -1.973877091236736 3.245430299734329 0.09826462575777062 -0.1262873029384435 0.4000000059604645 2.309260716139883 1 -0.3051218563377729 -2.000265664577641 3.346389811370777 0.09212667004145754 -0.08281492670902696 0.4000000059604645 0.252398775330084 1 -0.127239801243719 -2.22421341139598 4.278818764573031 0.06049154897355723 -0.1093264686316588 0.4000000059604645 2.331072348269951 1 -0.1236995782200841 -2.230634489188057 4.302384200927385 0.0596920291500601 -0.1086564378998932 0.4000000059604645 0.05891359000800378 1 -0.07689264579516028 -2.252282861257183 4.469568201373928 0.1642860213685645 0.005065796049516513 0.4000000059604645 0.4179599948882678 1 -0.07272061020264886 -2.25206032332148 4.479930640865786 0.1578030510324008 0.01211455529102345 0.4000000059604645 0.0259060983436139 1 -0.05493729184025631 -2.252673950192028 4.529971763804772 0.1264962225721072 -0.02192451707689858 0.4000000059604645 0.1251028054832888 1 -0.06903733077974938 -2.445368691512362 4.727450555965732 -0.1518496964595011 -0.3245625467722206 -0.04491067451589455 1.112276684616683 1 -0.08217886772077816 -2.47345732650821 4.723563848899746 -0.1880295673384748 -0.4018931658525267 -0.05561113979806278 0.07733061908030608 0 -0.1199627667665484 -2.554216384887694 4.71238898038469 0 0 0 0.4018931658525267 1 </data>\n</trajectory>\n'
p2
a.