(lp0
S'<trajectory>\n<configuration>\n<group name="deltatime" offset="6" dof="1" interpolation=""/>\n<group name="affine_velocities PR2 11" offset="3" dof="3" interpolation="linear"/>\n<group name="affine_transform PR2 11" offset="0" dof="3" interpolation="quadratic"/>\n<group name="iswaypoint" offset="7" dof="1" interpolation="next"/>\n</configuration>\n<data count="4">\n-0.1199627667665493 -2.554216384887695 -1.570796326794897 0 0 0 0 1 -0.6199627667665493 -2.739541912654864 -1.570796326794897 -1 -0.3706510555343389 0 1 0 -1.468957424163819 -3.054222678562177 -1.570796326794897 -1 -0.3706510555343389 0 0.8489946573972698 0 -1.968957424163819 -3.239548206329346 -1.570796326794897 0 0 0 1 1 </data>\n</trajectory>\n'
p1
aS'<trajectory>\n<configuration>\n<group name="deltatime" offset="6" dof="1" interpolation=""/>\n<group name="affine_velocities PR2 11" offset="3" dof="3" interpolation="linear"/>\n<group name="affine_transform PR2 11" offset="0" dof="3" interpolation="quadratic"/>\n<group name="iswaypoint" offset="7" dof="1" interpolation="next"/>\n</configuration>\n<data count="13">\n-0.1199627667665493 -2.554216384887695 -1.570796326794897 0 0 0 0 1 -0.1058973784339762 -2.5495042966548 -1.571298667171714 0.1677223201161555 0.05618916110428041 -0.005990143428359618 0.1677223201161555 1 -0.0224209877666191 -2.430299015827155 -1.371343516463679 -0.003232827872233057 0.1787037943694272 0.4000000059604645 1.014975358347749 1 -0.2085793481637255 -2.038006306014013 -0.7842645632668334 -0.250441213286812 0.3558651436210642 0.4000000059604645 1.467697361121718 1 -0.6852364287972613 -1.673700463078452 -0.2568264730094929 -0.4725359042796738 0.1967014686027801 0.4000000059604645 1.318595205994751 1 -1.122942229167846 -1.526152966716333 0.2113516202630198 -0.2753945319069401 0.05542053485006448 0.4000000059604645 1.170445215740289 1 -1.375283987283974 -1.611324063963417 0.9014911642476879 -0.01711647004998514 -0.1541496678303057 0.4000000059604645 1.725348834251969 1 -1.528433746326574 -2.990579507157364 4.480494565707613 -0.01711647004998514 -0.1541496678303057 0.4000000059604645 8.94750837032155 1 -1.531579424093825 -3.003244452093595 4.512388977404457 -0.06178582403276389 -0.1635221612119617 0.4000000059604645 0.07973602805395069 1 -1.644202106049361 -3.107170605397065 4.668830917284789 -0.3605598681784941 -0.22621072734717 0.1866720412894565 0.5333199037304341 1 -1.790510729910006 -3.174321906746456 4.708326153656984 -0.5421550686974345 -0.1881085462486829 0.05701106410686833 0.3241524381262227 1 -1.862092676636822 -3.199938674859054 4.71238898038469 -0.4623088740809467 -0.1713552721609949 0 0.1425276581433432 1 -1.968957424163819 -3.239548206329346 4.71238898038469 0 0 0 0.4623088740809467 1 </data>\n</trajectory>\n'
p2
a.