(lp0
S'<trajectory>\n<configuration>\n<group name="deltatime" offset="6" dof="1" interpolation=""/>\n<group name="affine_velocities PR2 11" offset="3" dof="3" interpolation="linear"/>\n<group name="affine_transform PR2 11" offset="0" dof="3" interpolation="quadratic"/>\n<group name="iswaypoint" offset="7" dof="1" interpolation="next"/>\n</configuration>\n<data count="13">\n-0.1199627667665495 -2.554216384887694 -1.570796326794897 0 0 0 0 1 -0.1322170046804912 -2.539200661997439 -1.570796326794897 -0.1414256499138092 0.1732958331308352 0 0.1732958331308352 1 -0.3466228821842298 -2.274512894507012 -1.370796323814665 -0.2873861050936676 0.3560797018500167 0.4000000059604645 1 1 -0.9344144638023193 -1.544088467558133 -0.7767285627373431 -0.5041621038997667 0.6275447069325111 0.4000000059604645 1.485169380562556 1 -0.9474888742256661 -1.527936025325029 -0.7663940333650491 -0.5079331853716973 0.6228222438527315 0.4000000059604645 0.0258363230457439 1 -1.813876176960008 -0.4826251011167164 0.4302649517186357 -0.07127096648376635 0.07599735492314424 0.4000000059604645 2.991647418130191 1 -1.826141278598477 -0.4699277468207914 0.509427930396863 -0.0526768892035409 0.05231873117807231 0.4000000059604645 0.1979074437465176 1 -2.352548038202606 0.0528998947210579 4.506678150805221 -0.0526768892035409 0.05231873117807231 0.4000000059604645 9.993125402111719 0 -2.378886482804377 0.07905926031009405 4.706678153785453 0 0 0 1 1 -2.366036181171011 0.1306607214994062 4.709533567085072 0.08000135078917096 0.3212521165356335 0.0177767750165259 0.3212521165356335 0 -2.353185879537646 0.1822621826887183 4.71238898038469 0 0 0 0.3212521165356335 1 -2.416412704859766 0.2597371342062978 4.71238898038469 -0.3212445121375438 0.3936367653499341 0 0.3936367653499341 0 -2.479639530181886 0.3372120857238774 4.71238898038469 0 0 0 0.3936367653499341 1 </data>\n</trajectory>\n'
p1
aS'<trajectory>\n<configuration>\n<group name="deltatime" offset="6" dof="1" interpolation=""/>\n<group name="affine_velocities PR2 11" offset="3" dof="3" interpolation="linear"/>\n<group name="affine_transform PR2 11" offset="0" dof="3" interpolation="quadratic"/>\n<group name="iswaypoint" offset="7" dof="1" interpolation="next"/>\n</configuration>\n<data count="23">\n-0.1199627667665493 -2.554216384887695 -1.570796326794897 0 0 0 0 1 -0.1190076271478755 -2.558191824376611 -1.570691955775701 0.02142344376684935 -0.08916770142732372 0.002341005039392565 0.08916770142732372 1 -0.06617906556414113 -2.778621568498962 -1.37069880317611 0.08485567929804591 -0.3542871116591506 0.4000000059604645 0.9941474874887278 1 -0.04544502700878426 -2.865196876667476 -1.28059225133512 0.09922894887334237 -0.4143611847387846 0.4000000059604645 0.2252663762457437 1 -0.03931404477266786 -2.891858849415876 -1.25536628320724 0.09520505013577114 -0.4311793474789706 0.4000000059604645 0.06306491937995928 1 0.0269012124387249 -3.205322745603699 -0.813886392482956 0.02478276283472748 -0.1368445330099656 0.4000000059604645 1.103699710364303 1 0.003064189220583491 -3.253218166387333 0.2892069832024566 -0.042070165042925 0.1021091805525572 0.4000000059604645 2.757733398120101 1 -0.06630436381680596 -3.193128951587485 0.7772185332229304 -0.07164608461247952 -0.003604600990494436 0.4000000059604645 1.220028856871338 1 -0.08370978972401688 -3.196835454044257 0.8787532937579881 -0.06549257469868168 -0.02559921053155718 0.4000000059604645 0.2538368975551792 1 -0.2978604943902452 -3.231450380871909 1.803296080629499 -0.1198104407145658 -0.004352828755308749 0.4000000059604645 2.311356932736875 1 -0.3332485713715552 -3.233080130707606 1.918205525418857 -0.1265614920608735 -0.006993496086620411 0.4000000059604645 0.2872736076926845 1 -0.5863478331542862 -3.3114384268247 2.27212803760652 -0.4455394777016885 -0.1701261718325002 0.4000000059604645 0.8848062672845165 1 -1.697972230487406 -3.355032049404117 2.887330558766315 -1 0.1134376873356164 0.4000000059604645 1.538006279981407 1 -1.969327076202339 -3.317462244169239 2.995872498669689 -0.9999999999999998 0.163467669824261 0.4000000059604645 0.2713548457149328 1 -3.204670076869465 -1.458257216235615 4.472252611722053 0.3306097755428888 0.8439721021971046 0.4000000059604644 3.690950227631463 1 -2.795791947401691 -0.6780071067275677 4.667526097015702 0.6356955857117055 1 0.06149157833078092 0.8462710564637872 1 -2.791125574875567 -0.6706971439216651 4.667976710475799 0.6410202198339299 1 0.06179590535728739 0.007309962805904346 1 -2.719712115567213 -0.5655703399660617 4.674243066479857 0.7175954066529736 1 0.05741928559827891 0.1051268039556035 1 -2.564238389430765 -0.317737817311282 4.687194899840939 0.5370722573889738 1 0.04710156761615612 0.2478325226547797 1 -2.373021989581875 0.1026086234340093 4.70798127898989 0.09939600138251815 0.399132958435429 0.02208638150092841 0.6008670415645714 1 -2.353185879537646 0.1822621826887183 4.71238898038469 0 0 0 0.399132958435429 1 -2.416412704859766 0.2597371342062978 4.71238898038469 -0.3212445121375438 0.3936367653499341 0 0.3936367653499341 0 -2.479639530181886 0.3372120857238774 4.71238898038469 0 0 0 0.3936367653499341 1 </data>\n</trajectory>\n'
p2
a.