(lp0
cnumpy.core.multiarray
scalar
p1
(cnumpy
dtype
p2
(S'S2791'
p3
I0
I1
tp4
Rp5
(I3
S'|'
p6
NNNI2791
I1
I0
tp7
bS'<trajectory>\n<configuration>\n<group name="deltatime" offset="6" dof="1" interpolation=""/>\n<group name="affine_velocities PR2 11" offset="3" dof="3" interpolation="linear"/>\n<group name="affine_transform PR2 11" offset="0" dof="3" interpolation="quadratic"/>\n<group name="iswaypoint" offset="7" dof="1" interpolation="next"/>\n</configuration>\n<data count="19">\n1.553639888763429 2.456500053405762 -1.570796326794897 0 0 0 0 1 1.557153335339095 2.440519144478542 -1.570796326794897 0.03930498308818714 -0.1787786840046658 0 0.1787786840046658 1 1.678420249737157 2.1482485513404 -1.370796323814665 0.2032288457079384 -0.4057625022716161 0.4000000059604645 1 1 2.30307421380212 1.061139353059612 -0.6561984208465776 0.4960779625304043 -0.8112678975822454 0.4000000059604645 1.786494730799372 1 2.443072667642819 0.8502562448118873 -0.5481374371468838 0.5403623964868745 -0.7499476617813901 0.4000000059604645 0.2701524552236494 1 3.290916375216018 -0.3281539178016637 0.4814210613988716 0.1184393880874876 -0.165714872664377 0.4000000059604645 2.573896208010346 1 3.340069084349234 -0.4113932755514042 0.7656776876401012 0.01989394968719279 -0.06855050954546704 0.4000000059604645 0.71064155501369 1 3.522632762358446 -1.04047062564055 4.436415446611158 0.01989394968719279 -0.06855050954546704 0.4000000059604645 9.176844260682007 1 3.428951690552815 -1.538121039461078 4.698824089605969 -0.2210451076741224 -1 0.1634414810637226 0.931449490454533 1 3.256687150641917 -2.119602187289694 4.750926329064032 -0.3714574714866086 -0.9999999999999999 0.01576377658779105 0.581481147828615 1 3.077453032667451 -2.451893634396267 4.735069950722639 -0.4803186685572091 -0.579152057569385 -0.09111820626522853 0.4208479424306149 1 2.936048955212444 -2.57309131979953 4.719633633427349 -0.5512352653634569 -0.304994647461767 -0.02149094983404902 0.2741574101076181 1 2.925775134436798 -2.578625611271645 4.719275822310877 -0.5463929326873611 -0.2862746094855376 -0.01673665599949356 0.01872003797622934 1 2.792037304862154 -2.648695596889177 4.715179275826096 -0.1762656453805143 -0.0923518145610711 -0.005399223333202217 0.3701272873068469 1 2.752217724607331 -2.660436380295289 4.714084553602873 -0.3327292266258775 -0.05772506994663039 -0.008594093379985313 0.1564635812453632 1 2.744184000853551 -2.661722731584018 4.713889633043695 -0.3560564361988349 -0.0525625565871564 -0.008117769097066076 0.02332720957295736 1 2.710510838036478 -2.666229293268713 4.713106915415398 -0.2437824032297414 -0.02771534143644665 -0.005825216784831918 0.1122740329690935 1 2.706143142496192 -2.666783974527264 4.713001945604217 -0.2251543227297609 -0.03183789686433591 -0.005444845225234782 0.01862808049998049 1 2.680795907974243 -2.670368194580079 4.71238898038469 0 0 0 0.2251543227297609 1 </data>\n</trajectory>\n'
p8
tp9
Rp10
a.